; Function Attrs: mustprogress uwtable
define void @_ZN4toml2v34impl9formatter5printERKNS0_5valueIbEE(ptr noundef nonnull align 8 captures(none) dereferenceable(69) initializes((68, 69)) %0, ptr noundef nonnull readonly align 8 captures(none) dereferenceable(44) %1) local_unnamed_addr #0 align 2 {
  %3 = getelementptr inbounds nuw i8, ptr %1, i64 40
  %4 = load i8, ptr %3, align 8, !tbaa !389, !range !95, !noundef !96
  %5 = trunc nuw i8 %4 to i1
  %6 = getelementptr inbounds nuw i8, ptr %0, i64 8
  %7 = load ptr, ptr %6, align 8
  %.v = select i1 %5, i64 64, i64 80
  %8 = getelementptr inbounds nuw i8, ptr %7, i64 %.v
  %.sroa.0.0.copyload = load i64, ptr %8, align 8, !tbaa !114
  %.sroa.2.0..sroa_idx = getelementptr inbounds nuw i8, ptr %8, i64 8
  %.sroa.2.0.copyload = load ptr, ptr %.sroa.2.0..sroa_idx, align 8, !tbaa !115
  %9 = getelementptr inbounds nuw i8, ptr %0, i64 56
  %10 = load ptr, ptr %9, align 8, !tbaa !121
  %11 = tail call noundef nonnull align 8 dereferenceable(8) ptr @_ZNSo5writeEPKcl(ptr noundef nonnull align 8 dereferenceable(8) %10, ptr noundef %.sroa.2.0.copyload, i64 noundef %.sroa.0.0.copyload)
  %12 = getelementptr inbounds nuw i8, ptr %0, i64 68
  store i8 0, ptr %12, align 4, !tbaa !120
  ret void
}